target datalayout = "e-m:e-p270:32:32-p271:32:32-p272:64:64-i64:64-i128:128-f80:128-n8:16:32:64-S128"
target triple = "x86_64-pc-linux-gnu"

%struct.VLCElem = type { %union.anon.1 }
%union.anon.1 = type { %struct.anon }
%struct.anon = type { i16, i16 }
%struct.VLCInitState = type { ptr, i32 }

@__const.svq1_static_init.state = private unnamed_addr constant { ptr, i32, [4 x i8] } { ptr @svq1_static_init.table, i32 196, [4 x i8] zeroinitializer }, align 8
@svq1_block_type = internal global [8 x %struct.VLCElem] zeroinitializer, align 16
@ff_svq1_block_type_vlc = external hidden constant [4 x [2 x i8]], align 1
@svq1_motion_component = internal global [176 x %struct.VLCElem] zeroinitializer, align 16
@ff_mvtab = external constant [33 x [2 x i8]], align 16
@ff_svq1_intra_multistage_vlc = external hidden constant [6 x [8 x [2 x i8]]], align 16
@svq1_intra_multistage = internal global [6 x ptr] zeroinitializer, align 16
@ff_svq1_inter_multistage_vlc = external hidden constant [6 x [8 x [2 x i8]]], align 16
@svq1_inter_multistage = internal global [6 x ptr] zeroinitializer, align 16
@svq1_intra_mean = internal global [632 x %struct.VLCElem] zeroinitializer, align 16
@ff_svq1_intra_mean_vlc = external hidden constant [256 x [2 x i16]], align 16
@svq1_inter_mean = internal global [1434 x %struct.VLCElem] zeroinitializer, align 16
@ff_svq1_inter_mean_vlc = external hidden constant [512 x [2 x i16]], align 16

; Function Attrs: inlinehint nounwind uwtable
define internal ptr @ff_vlc_init_tables(ptr noundef %0, i32 noundef %1, i32 noundef %2, ptr noundef %3, i32 noundef %4, i32 noundef %5, ptr noundef %6, i32 noundef %7, i32 noundef %8, i32 noundef %9) #5 {
  %11 = alloca ptr, align 8
  %12 = alloca i32, align 4
  %13 = alloca i32, align 4
  %14 = alloca ptr, align 8
  %15 = alloca i32, align 4
  %16 = alloca i32, align 4
  %17 = alloca ptr, align 8
  %18 = alloca i32, align 4
  %19 = alloca i32, align 4
  %20 = alloca i32, align 4
  store ptr %0, ptr %11, align 8, !tbaa !80
  store i32 %1, ptr %12, align 4, !tbaa !52
  store i32 %2, ptr %13, align 4, !tbaa !52
  store ptr %3, ptr %14, align 8, !tbaa !82
  store i32 %4, ptr %15, align 4, !tbaa !52
  store i32 %5, ptr %16, align 4, !tbaa !52
  store ptr %6, ptr %17, align 8, !tbaa !82
  store i32 %7, ptr %18, align 4, !tbaa !52
  store i32 %8, ptr %19, align 4, !tbaa !52
  store i32 %9, ptr %20, align 4, !tbaa !52
  %21 = load ptr, ptr %11, align 8, !tbaa !80
  %22 = load i32, ptr %12, align 4, !tbaa !52
  %23 = load i32, ptr %13, align 4, !tbaa !52
  %24 = load ptr, ptr %14, align 8, !tbaa !82
  %25 = load i32, ptr %15, align 4, !tbaa !52
  %26 = load i32, ptr %16, align 4, !tbaa !52
  %27 = load ptr, ptr %17, align 8, !tbaa !82
  %28 = load i32, ptr %18, align 4, !tbaa !52
  %29 = load i32, ptr %19, align 4, !tbaa !52
  %30 = load i32, ptr %20, align 4, !tbaa !52
  %31 = call ptr @ff_vlc_init_tables_sparse(ptr noundef %21, i32 noundef %22, i32 noundef %23, ptr noundef %24, i32 noundef %25, i32 noundef %26, ptr noundef %27, i32 noundef %28, i32 noundef %29, ptr noundef null, i32 noundef 0, i32 noundef 0, i32 noundef %30)
  ret ptr %31
}

; Function Attrs: cold nounwind optsize uwtable
define internal void @svq1_static_init() #0 {
  %1 = alloca %struct.VLCInitState, align 8
  %2 = alloca i32, align 4
  call void @llvm.lifetime.start.p0(i64 16, ptr %1) #12
  call void @llvm.memcpy.p0.p0.i64(ptr align 8 %1, ptr align 8 @__const.svq1_static_init.state, i64 16, i1 false)
  call void @ff_vlc_init_table_sparse(ptr noundef @svq1_block_type, i32 noundef 8, i32 noundef 3, i32 noundef 4, ptr noundef getelementptr inbounds ([2 x i8], ptr @ff_svq1_block_type_vlc, i64 0, i64 1), i32 noundef 2, i32 noundef 1, ptr noundef @ff_svq1_block_type_vlc, i32 noundef 2, i32 noundef 1, ptr noundef null, i32 noundef 0, i32 noundef 0, i32 noundef 0)
  call void @ff_vlc_init_table_sparse(ptr noundef @svq1_motion_component, i32 noundef 176, i32 noundef 7, i32 noundef 33, ptr noundef getelementptr inbounds ([2 x i8], ptr @ff_mvtab, i64 0, i64 1), i32 noundef 2, i32 noundef 1, ptr noundef @ff_mvtab, i32 noundef 2, i32 noundef 1, ptr noundef null, i32 noundef 0, i32 noundef 0, i32 noundef 0)
  call void @llvm.lifetime.start.p0(i64 4, ptr %2) #12
  store i32 0, ptr %2, align 4, !tbaa !52
  br label %3

3:                                                ; preds = %36, %0
  %4 = load i32, ptr %2, align 4, !tbaa !52
  %5 = icmp slt i32 %4, 6
  br i1 %5, label %7, label %6

6:                                                ; preds = %3
  call void @llvm.lifetime.end.p0(i64 4, ptr %2) #12
  br label %39

7:                                                ; preds = %3
  %8 = load i32, ptr %2, align 4, !tbaa !52
  %9 = sext i32 %8 to i64
  %10 = getelementptr inbounds [6 x [8 x [2 x i8]]], ptr @ff_svq1_intra_multistage_vlc, i64 0, i64 %9
  %11 = getelementptr inbounds [8 x [2 x i8]], ptr %10, i64 0, i64 0
  %12 = getelementptr inbounds [2 x i8], ptr %11, i64 0, i64 1
  %13 = load i32, ptr %2, align 4, !tbaa !52
  %14 = sext i32 %13 to i64
  %15 = getelementptr inbounds [6 x [8 x [2 x i8]]], ptr @ff_svq1_intra_multistage_vlc, i64 0, i64 %14
  %16 = getelementptr inbounds [8 x [2 x i8]], ptr %15, i64 0, i64 0
  %17 = getelementptr inbounds [2 x i8], ptr %16, i64 0, i64 0
  %18 = call ptr @ff_vlc_init_tables(ptr noundef %1, i32 noundef 4, i32 noundef 8, ptr noundef %12, i32 noundef 2, i32 noundef 1, ptr noundef %17, i32 noundef 2, i32 noundef 1, i32 noundef 0)
  %19 = load i32, ptr %2, align 4, !tbaa !52
  %20 = sext i32 %19 to i64
  %21 = getelementptr inbounds [6 x ptr], ptr @svq1_intra_multistage, i64 0, i64 %20
  store ptr %18, ptr %21, align 8, !tbaa !77
  %22 = load i32, ptr %2, align 4, !tbaa !52
  %23 = sext i32 %22 to i64
  %24 = getelementptr inbounds [6 x [8 x [2 x i8]]], ptr @ff_svq1_inter_multistage_vlc, i64 0, i64 %23
  %25 = getelementptr inbounds [8 x [2 x i8]], ptr %24, i64 0, i64 0
  %26 = getelementptr inbounds [2 x i8], ptr %25, i64 0, i64 1
  %27 = load i32, ptr %2, align 4, !tbaa !52
  %28 = sext i32 %27 to i64
  %29 = getelementptr inbounds [6 x [8 x [2 x i8]]], ptr @ff_svq1_inter_multistage_vlc, i64 0, i64 %28
  %30 = getelementptr inbounds [8 x [2 x i8]], ptr %29, i64 0, i64 0
  %31 = getelementptr inbounds [2 x i8], ptr %30, i64 0, i64 0
  %32 = call ptr @ff_vlc_init_tables(ptr noundef %1, i32 noundef 3, i32 noundef 8, ptr noundef %26, i32 noundef 2, i32 noundef 1, ptr noundef %31, i32 noundef 2, i32 noundef 1, i32 noundef 0)
  %33 = load i32, ptr %2, align 4, !tbaa !52
  %34 = sext i32 %33 to i64
  %35 = getelementptr inbounds [6 x ptr], ptr @svq1_inter_multistage, i64 0, i64 %34
  store ptr %32, ptr %35, align 8, !tbaa !77
  br label %36

36:                                               ; preds = %7
  %37 = load i32, ptr %2, align 4, !tbaa !52
  %38 = add nsw i32 %37, 1
  store i32 %38, ptr %2, align 4, !tbaa !52
  br label %3, !llvm.loop !79

39:                                               ; preds = %6
  call void @ff_vlc_init_table_sparse(ptr noundef @svq1_intra_mean, i32 noundef 632, i32 noundef 8, i32 noundef 256, ptr noundef getelementptr inbounds ([2 x i16], ptr @ff_svq1_intra_mean_vlc, i64 0, i64 1), i32 noundef 4, i32 noundef 2, ptr noundef @ff_svq1_intra_mean_vlc, i32 noundef 4, i32 noundef 2, ptr noundef null, i32 noundef 0, i32 noundef 0, i32 noundef 0)
  call void @ff_vlc_init_table_sparse(ptr noundef @svq1_inter_mean, i32 noundef 1434, i32 noundef 9, i32 noundef 512, ptr noundef getelementptr inbounds ([2 x i16], ptr @ff_svq1_inter_mean_vlc, i64 0, i64 1), i32 noundef 4, i32 noundef 2, ptr noundef @ff_svq1_inter_mean_vlc, i32 noundef 4, i32 noundef 2, ptr noundef null, i32 noundef 0, i32 noundef 0, i32 noundef 0)
  call void @llvm.lifetime.end.p0(i64 16, ptr %1) #12
  ret void
}