; Function Attrs: cold nounwind optsize uwtable
define internal void @svq1_static_init() #0 {
  %1 = alloca %struct.VLCInitState, align 8
  call void @llvm.lifetime.start.p0(i64 16, ptr nonnull %1) #9
  call void @llvm.memcpy.p0.p0.i64(ptr noundef nonnull align 8 dereferenceable(16) %1, ptr noundef nonnull align 8 dereferenceable(16) @__const.svq1_static_init.state, i64 16, i1 false)
  tail call void @ff_vlc_init_table_sparse(ptr noundef nonnull @svq1_block_type, i32 noundef 8, i32 noundef 3, i32 noundef 4, ptr noundef nonnull getelementptr inbounds nuw (i8, ptr @ff_svq1_block_type_vlc, i64 1), i32 noundef 2, i32 noundef 1, ptr noundef nonnull @ff_svq1_block_type_vlc, i32 noundef 2, i32 noundef 1, ptr noundef null, i32 noundef 0, i32 noundef 0, i32 noundef 0) #9
  tail call void @ff_vlc_init_table_sparse(ptr noundef nonnull @svq1_motion_component, i32 noundef 176, i32 noundef 7, i32 noundef 33, ptr noundef nonnull getelementptr inbounds nuw (i8, ptr @ff_mvtab, i64 1), i32 noundef 2, i32 noundef 1, ptr noundef nonnull @ff_mvtab, i32 noundef 2, i32 noundef 1, ptr noundef null, i32 noundef 0, i32 noundef 0, i32 noundef 0) #9
  br label %3

2:                                                ; preds = %3
  call void @ff_vlc_init_table_sparse(ptr noundef nonnull @svq1_intra_mean, i32 noundef 632, i32 noundef 8, i32 noundef 256, ptr noundef nonnull getelementptr inbounds nuw (i8, ptr @ff_svq1_intra_mean_vlc, i64 2), i32 noundef 4, i32 noundef 2, ptr noundef nonnull @ff_svq1_intra_mean_vlc, i32 noundef 4, i32 noundef 2, ptr noundef null, i32 noundef 0, i32 noundef 0, i32 noundef 0) #9
  call void @ff_vlc_init_table_sparse(ptr noundef nonnull @svq1_inter_mean, i32 noundef 1434, i32 noundef 9, i32 noundef 512, ptr noundef nonnull getelementptr inbounds nuw (i8, ptr @ff_svq1_inter_mean_vlc, i64 2), i32 noundef 4, i32 noundef 2, ptr noundef nonnull @ff_svq1_inter_mean_vlc, i32 noundef 4, i32 noundef 2, ptr noundef null, i32 noundef 0, i32 noundef 0, i32 noundef 0) #9
  call void @llvm.lifetime.end.p0(i64 16, ptr nonnull %1) #9
  ret void

3:                                                ; preds = %0, %3
  %indvars.iv = phi i64 [ 0, %0 ], [ %indvars.iv.next, %3 ]
  %4 = getelementptr inbounds nuw [6 x [8 x [2 x i8]]], ptr @ff_svq1_intra_multistage_vlc, i64 0, i64 %indvars.iv
  %5 = getelementptr inbounds nuw i8, ptr %4, i64 1
  %6 = call ptr @ff_vlc_init_tables_sparse(ptr noundef nonnull %1, i32 noundef 4, i32 noundef 8, ptr noundef nonnull %5, i32 noundef 2, i32 noundef 1, ptr noundef nonnull %4, i32 noundef 2, i32 noundef 1, ptr noundef null, i32 noundef 0, i32 noundef 0, i32 noundef 0) #9
  %7 = getelementptr inbounds nuw [6 x ptr], ptr @svq1_intra_multistage, i64 0, i64 %indvars.iv
  store ptr %6, ptr %7, align 8, !tbaa !84
  %8 = getelementptr inbounds nuw [6 x [8 x [2 x i8]]], ptr @ff_svq1_inter_multistage_vlc, i64 0, i64 %indvars.iv
  %9 = getelementptr inbounds nuw i8, ptr %8, i64 1
  %10 = call ptr @ff_vlc_init_tables_sparse(ptr noundef nonnull %1, i32 noundef 3, i32 noundef 8, ptr noundef nonnull %9, i32 noundef 2, i32 noundef 1, ptr noundef nonnull %8, i32 noundef 2, i32 noundef 1, ptr noundef null, i32 noundef 0, i32 noundef 0, i32 noundef 0) #9
  %11 = getelementptr inbounds nuw [6 x ptr], ptr @svq1_inter_multistage, i64 0, i64 %indvars.iv
  store ptr %10, ptr %11, align 8, !tbaa !84
  %indvars.iv.next = add nuw nsw i64 %indvars.iv, 1
  %exitcond.not = icmp eq i64 %indvars.iv.next, 6
  br i1 %exitcond.not, label %2, label %3, !llvm.loop !86
}